target datalayout = "e-m:e-p270:32:32-p271:32:32-p272:64:64-i64:64-i128:128-f80:128-n8:16:32:64-S128"
target triple = "x86_64-pc-linux-gnu"

@pager_program = internal global ptr null, align 8
@.str.13 = private unnamed_addr constant [11 x i8] c"core.pager\00", align 1

; Function Attrs: nounwind uwtable
define internal i32 @core_pager_config(ptr noundef %0, ptr noundef %1, ptr noundef %2, ptr noundef %3) #0 {
  %5 = alloca i32, align 4
  %6 = alloca ptr, align 8
  %7 = alloca ptr, align 8
  %8 = alloca ptr, align 8
  %9 = alloca ptr, align 8
  store ptr %0, ptr %6, align 8, !tbaa !13
  store ptr %1, ptr %7, align 8, !tbaa !13
  store ptr %2, ptr %8, align 8, !tbaa !16
  store ptr %3, ptr %9, align 8, !tbaa !18
  %10 = load ptr, ptr %6, align 8, !tbaa !13
  %11 = call i32 @strcmp(ptr noundef %10, ptr noundef @.str.13) #9
  %12 = icmp ne i32 %11, 0
  br i1 %12, label %17, label %13

13:                                               ; preds = %4
  %14 = load ptr, ptr %6, align 8, !tbaa !13
  %15 = load ptr, ptr %7, align 8, !tbaa !13
  %16 = call i32 @git_config_string(ptr noundef @pager_program, ptr noundef %14, ptr noundef %15)
  store i32 %16, ptr %5, align 4
  br label %18

17:                                               ; preds = %4
  store i32 0, ptr %5, align 4
  br label %18

18:                                               ; preds = %17, %13
  %19 = load i32, ptr %5, align 4
  ret i32 %19
}